; Function Attrs: null_pointer_is_valid sspstrong uwtable
define i32 @fvalue_matches(ptr noundef %0, ptr noundef %1) local_unnamed_addr #0 {
  %3 = alloca i8, align 1
  call void @llvm.lifetime.start.p0(i64 1, ptr nonnull %3) #11
  %4 = load ptr, ptr %0, align 8
  %5 = getelementptr inbounds nuw i8, ptr %4, i64 144
  %6 = load ptr, ptr %5, align 8
  %7 = call i32 %6(ptr noundef %0, ptr noundef %1, ptr noundef nonnull %3)
  %.not = icmp eq i32 %7, 0
  %8 = sub i32 0, %7
  %9 = load i8, ptr %3, align 1, !range !8
  %10 = zext nneg i8 %9 to i32
  %.0 = select i1 %.not, i32 %10, i32 %8
  call void @llvm.lifetime.end.p0(i64 1, ptr nonnull %3) #11
  ret i32 %.0
}